target datalayout = "e-m:e-p270:32:32-p271:32:32-p272:64:64-i64:64-i128:128-f80:128-n8:16:32:64-S128"
target triple = "x86_64-pc-linux-gnu"

%struct._fileset = type { ptr, ptr }
%struct._GList = type { ptr, ptr, ptr }

@set = internal global %struct._fileset zeroinitializer, align 8

; Function Attrs: nounwind uwtable
define hidden void @fileset_update_dlg(ptr noundef %0) #0 {
  %2 = alloca ptr, align 8
  %3 = alloca ptr, align 8
  store ptr %0, ptr %2, align 8
  %4 = load ptr, ptr %2, align 8
  call void @fileset_dlg_begin_add_file(ptr noundef %4)
  %5 = load ptr, ptr @set, align 8
  %6 = call ptr @g_list_first(ptr noundef %5)
  store ptr %6, ptr %3, align 8
  br label %7

7:                                                ; preds = %22, %1
  %8 = load ptr, ptr %3, align 8
  %9 = icmp ne ptr %8, null
  br i1 %9, label %10, label %24

10:                                               ; preds = %7
  %11 = load ptr, ptr %3, align 8
  %12 = getelementptr inbounds %struct._GList, ptr %11, i32 0, i32 0
  %13 = load ptr, ptr %12, align 8
  %14 = load ptr, ptr %2, align 8
  call void @fileset_dlg_add_file(ptr noundef %13, ptr noundef %14)
  %15 = load ptr, ptr %3, align 8
  %16 = icmp ne ptr %15, null
  br i1 %16, label %17, label %21

17:                                               ; preds = %10
  %18 = load ptr, ptr %3, align 8
  %19 = getelementptr inbounds %struct._GList, ptr %18, i32 0, i32 1
  %20 = load ptr, ptr %19, align 8
  br label %22

21:                                               ; preds = %10
  br label %22

22:                                               ; preds = %21, %17
  %23 = phi ptr [ %20, %17 ], [ null, %21 ]
  store ptr %23, ptr %3, align 8
  br label %7, !llvm.loop !6

24:                                               ; preds = %7
  %25 = load ptr, ptr %2, align 8
  call void @fileset_dlg_end_add_file(ptr noundef %25)
  ret void
}