; Function Attrs: nounwind uwtable
define hidden void @fileset_update_dlg(ptr noundef %0) local_unnamed_addr #0 {
  tail call void @fileset_dlg_begin_add_file(ptr noundef %0) #9
  %2 = load ptr, ptr @set.0, align 8
  %3 = tail call ptr @g_list_first(ptr noundef %2) #9
  %.not7 = icmp eq ptr %3, null
  br i1 %.not7, label %._crit_edge, label %.lr.ph

.lr.ph:                                           ; preds = %1, %.lr.ph
  %.08 = phi ptr [ %6, %.lr.ph ], [ %3, %1 ]
  %4 = load ptr, ptr %.08, align 8
  tail call void @fileset_dlg_add_file(ptr noundef %4, ptr noundef %0) #9
  %5 = getelementptr inbounds nuw i8, ptr %.08, i64 8
  %6 = load ptr, ptr %5, align 8
  %.not = icmp eq ptr %6, null
  br i1 %.not, label %._crit_edge, label %.lr.ph, !llvm.loop !6

._crit_edge:                                      ; preds = %.lr.ph, %1
  tail call void @fileset_dlg_end_add_file(ptr noundef %0) #9
  ret void
}